target datalayout = "e-m:e-p270:32:32-p271:32:32-p272:64:64-i64:64-i128:128-f80:128-n8:16:32:64-S128"
target triple = "x86_64-pc-linux-gnu"

%struct.USystemParams = type { ptr, ptr, ptr, i32 }

; Function Attrs: inlinehint mustprogress nounwind uwtable
define internal noundef signext i8 @_ZL9U_FAILURE10UErrorCode(i32 noundef %0) #2 {
  %2 = alloca i32, align 4
  store i32 %0, ptr %2, align 4, !tbaa !15
  %3 = load i32, ptr %2, align 4, !tbaa !15
  %4 = icmp sgt i32 %3, 0
  %5 = zext i1 %4 to i8
  ret i8 %5
}

; Function Attrs: mustprogress uwtable
define i32 @paramInteger(ptr noundef %0, ptr noundef %1, i32 noundef %2, ptr noundef %3) #1 {
  %5 = alloca i32, align 4
  %6 = alloca ptr, align 8
  %7 = alloca ptr, align 8
  %8 = alloca i32, align 4
  %9 = alloca ptr, align 8
  store ptr %0, ptr %6, align 8, !tbaa !35
  store ptr %1, ptr %7, align 8, !tbaa !17
  store i32 %2, ptr %8, align 4, !tbaa !14
  store ptr %3, ptr %9, align 8, !tbaa !22
  %10 = load ptr, ptr %9, align 8, !tbaa !22
  %11 = load i32, ptr %10, align 4, !tbaa !15
  %12 = call noundef signext i8 @_ZL9U_FAILURE10UErrorCode(i32 noundef %11)
  %13 = icmp ne i8 %12, 0
  br i1 %13, label %14, label %15

14:                                               ; preds = %4
  store i32 0, ptr %5, align 4
  br label %86

15:                                               ; preds = %4
  %16 = load ptr, ptr %6, align 8, !tbaa !35
  %17 = getelementptr inbounds nuw %struct.USystemParams, ptr %16, i32 0, i32 2
  %18 = load ptr, ptr %17, align 8, !tbaa !37
  %19 = icmp eq ptr %18, null
  br i1 %19, label %28, label %20

20:                                               ; preds = %15
  %21 = load ptr, ptr %6, align 8, !tbaa !35
  %22 = getelementptr inbounds nuw %struct.USystemParams, ptr %21, i32 0, i32 2
  %23 = load ptr, ptr %22, align 8, !tbaa !37
  %24 = getelementptr inbounds i8, ptr %23, i64 0
  %25 = load i8, ptr %24, align 1, !tbaa !25
  %26 = sext i8 %25 to i32
  %27 = icmp eq i32 %26, 100
  br i1 %27, label %28, label %36

28:                                               ; preds = %20, %15
  %29 = load ptr, ptr %7, align 8, !tbaa !17
  %30 = load i32, ptr %8, align 4, !tbaa !14
  %31 = load ptr, ptr %6, align 8, !tbaa !35
  %32 = getelementptr inbounds nuw %struct.USystemParams, ptr %31, i32 0, i32 3
  %33 = load i32, ptr %32, align 8, !tbaa !39
  %34 = load ptr, ptr %9, align 8, !tbaa !22
  %35 = call noundef i32 @_ZL21integerToStringBufferPciiiP10UErrorCode(ptr noundef %29, i32 noundef %30, i32 noundef %33, i32 noundef 10, ptr noundef %34)
  store i32 %35, ptr %5, align 4
  br label %86

36:                                               ; preds = %20
  %37 = load ptr, ptr %6, align 8, !tbaa !35
  %38 = getelementptr inbounds nuw %struct.USystemParams, ptr %37, i32 0, i32 2
  %39 = load ptr, ptr %38, align 8, !tbaa !37
  %40 = getelementptr inbounds i8, ptr %39, i64 0
  %41 = load i8, ptr %40, align 1, !tbaa !25
  %42 = sext i8 %41 to i32
  %43 = icmp eq i32 %42, 120
  br i1 %43, label %44, label %52

44:                                               ; preds = %36
  %45 = load ptr, ptr %7, align 8, !tbaa !17
  %46 = load i32, ptr %8, align 4, !tbaa !14
  %47 = load ptr, ptr %6, align 8, !tbaa !35
  %48 = getelementptr inbounds nuw %struct.USystemParams, ptr %47, i32 0, i32 3
  %49 = load i32, ptr %48, align 8, !tbaa !39
  %50 = load ptr, ptr %9, align 8, !tbaa !22
  %51 = call noundef i32 @_ZL21integerToStringBufferPciiiP10UErrorCode(ptr noundef %45, i32 noundef %46, i32 noundef %49, i32 noundef 16, ptr noundef %50)
  store i32 %51, ptr %5, align 4
  br label %86

52:                                               ; preds = %36
  %53 = load ptr, ptr %6, align 8, !tbaa !35
  %54 = getelementptr inbounds nuw %struct.USystemParams, ptr %53, i32 0, i32 2
  %55 = load ptr, ptr %54, align 8, !tbaa !37
  %56 = getelementptr inbounds i8, ptr %55, i64 0
  %57 = load i8, ptr %56, align 1, !tbaa !25
  %58 = sext i8 %57 to i32
  %59 = icmp eq i32 %58, 111
  br i1 %59, label %60, label %68

60:                                               ; preds = %52
  %61 = load ptr, ptr %7, align 8, !tbaa !17
  %62 = load i32, ptr %8, align 4, !tbaa !14
  %63 = load ptr, ptr %6, align 8, !tbaa !35
  %64 = getelementptr inbounds nuw %struct.USystemParams, ptr %63, i32 0, i32 3
  %65 = load i32, ptr %64, align 8, !tbaa !39
  %66 = load ptr, ptr %9, align 8, !tbaa !22
  %67 = call noundef i32 @_ZL21integerToStringBufferPciiiP10UErrorCode(ptr noundef %61, i32 noundef %62, i32 noundef %65, i32 noundef 8, ptr noundef %66)
  store i32 %67, ptr %5, align 4
  br label %86

68:                                               ; preds = %52
  %69 = load ptr, ptr %6, align 8, !tbaa !35
  %70 = getelementptr inbounds nuw %struct.USystemParams, ptr %69, i32 0, i32 2
  %71 = load ptr, ptr %70, align 8, !tbaa !37
  %72 = getelementptr inbounds i8, ptr %71, i64 0
  %73 = load i8, ptr %72, align 1, !tbaa !25
  %74 = sext i8 %73 to i32
  %75 = icmp eq i32 %74, 98
  br i1 %75, label %76, label %84

76:                                               ; preds = %68
  %77 = load ptr, ptr %7, align 8, !tbaa !17
  %78 = load i32, ptr %8, align 4, !tbaa !14
  %79 = load ptr, ptr %6, align 8, !tbaa !35
  %80 = getelementptr inbounds nuw %struct.USystemParams, ptr %79, i32 0, i32 3
  %81 = load i32, ptr %80, align 8, !tbaa !39
  %82 = load ptr, ptr %9, align 8, !tbaa !22
  %83 = call noundef i32 @_ZL21integerToStringBufferPciiiP10UErrorCode(ptr noundef %77, i32 noundef %78, i32 noundef %81, i32 noundef 2, ptr noundef %82)
  store i32 %83, ptr %5, align 4
  br label %86

84:                                               ; preds = %68
  %85 = load ptr, ptr %9, align 8, !tbaa !22
  store i32 5, ptr %85, align 4, !tbaa !15
  store i32 0, ptr %5, align 4
  br label %86

86:                                               ; preds = %84, %76, %60, %44, %28, %14
  %87 = load i32, ptr %5, align 4
  ret i32 %87
}