; Function Attrs: mustprogress uwtable
define noundef i32 @paramInteger(ptr noundef readonly captures(none) %0, ptr noundef %1, i32 noundef %2, ptr noundef %3) #1 {
  %5 = load i32, ptr %3, align 4, !tbaa !13
  %6 = icmp slt i32 %5, 1
  br i1 %6, label %7, label %30

7:                                                ; preds = %4
  %8 = getelementptr inbounds nuw i8, ptr %0, i64 16
  %9 = load ptr, ptr %8, align 8, !tbaa !22
  %10 = icmp eq ptr %9, null
  br i1 %10, label %13, label %11

11:                                               ; preds = %7
  %12 = load i8, ptr %9, align 1, !tbaa !24
  switch i8 %12, label %29 [
    i8 100, label %13
    i8 120, label %17
    i8 111, label %21
    i8 98, label %25
  ]

13:                                               ; preds = %11, %7
  %14 = getelementptr inbounds nuw i8, ptr %0, i64 24
  %15 = load i32, ptr %14, align 8, !tbaa !25
  %16 = tail call fastcc noundef i32 @_ZL21integerToStringBufferPciiiP10UErrorCode(ptr noundef %1, i32 noundef %2, i32 noundef %15, i32 noundef 10, ptr noundef nonnull %3)
  br label %30

17:                                               ; preds = %11
  %18 = getelementptr inbounds nuw i8, ptr %0, i64 24
  %19 = load i32, ptr %18, align 8, !tbaa !25
  %20 = tail call fastcc noundef i32 @_ZL21integerToStringBufferPciiiP10UErrorCode(ptr noundef %1, i32 noundef %2, i32 noundef %19, i32 noundef 16, ptr noundef nonnull %3)
  br label %30

21:                                               ; preds = %11
  %22 = getelementptr inbounds nuw i8, ptr %0, i64 24
  %23 = load i32, ptr %22, align 8, !tbaa !25
  %24 = tail call fastcc noundef i32 @_ZL21integerToStringBufferPciiiP10UErrorCode(ptr noundef %1, i32 noundef %2, i32 noundef %23, i32 noundef 8, ptr noundef nonnull %3)
  br label %30

25:                                               ; preds = %11
  %26 = getelementptr inbounds nuw i8, ptr %0, i64 24
  %27 = load i32, ptr %26, align 8, !tbaa !25
  %28 = tail call fastcc noundef i32 @_ZL21integerToStringBufferPciiiP10UErrorCode(ptr noundef %1, i32 noundef %2, i32 noundef %27, i32 noundef 2, ptr noundef nonnull %3)
  br label %30

29:                                               ; preds = %11
  store i32 5, ptr %3, align 4, !tbaa !13
  br label %30

30:                                               ; preds = %4, %29, %25, %21, %17, %13
  %.0 = phi i32 [ %16, %13 ], [ %20, %17 ], [ %24, %21 ], [ %28, %25 ], [ 0, %29 ], [ 0, %4 ]
  ret i32 %.0
}